
f：     文件格式 elf64-x86-64


Disassembly of section .init:

0000000000001000 <_init>:
_init():
    1000:	f3 0f 1e fa          	endbr64 
    1004:	48 83 ec 08          	sub    rsp,0x8
    1008:	48 8b 05 d9 2f 00 00 	mov    rax,QWORD PTR [rip+0x2fd9]        # 3fe8 <__gmon_start__>
    100f:	48 85 c0             	test   rax,rax
    1012:	74 02                	je     1016 <_init+0x16>
    1014:	ff d0                	call   rax
    1016:	48 83 c4 08          	add    rsp,0x8
    101a:	c3                   	ret    

Disassembly of section .plt:

0000000000001020 <.plt>:
    1020:	ff 35 62 2f 00 00    	push   QWORD PTR [rip+0x2f62]        # 3f88 <_GLOBAL_OFFSET_TABLE_+0x8>
    1026:	f2 ff 25 63 2f 00 00 	bnd jmp QWORD PTR [rip+0x2f63]        # 3f90 <_GLOBAL_OFFSET_TABLE_+0x10>
    102d:	0f 1f 00             	nop    DWORD PTR [rax]
    1030:	f3 0f 1e fa          	endbr64 
    1034:	68 00 00 00 00       	push   0x0
    1039:	f2 e9 e1 ff ff ff    	bnd jmp 1020 <.plt>
    103f:	90                   	nop
    1040:	f3 0f 1e fa          	endbr64 
    1044:	68 01 00 00 00       	push   0x1
    1049:	f2 e9 d1 ff ff ff    	bnd jmp 1020 <.plt>
    104f:	90                   	nop
    1050:	f3 0f 1e fa          	endbr64 
    1054:	68 02 00 00 00       	push   0x2
    1059:	f2 e9 c1 ff ff ff    	bnd jmp 1020 <.plt>
    105f:	90                   	nop
    1060:	f3 0f 1e fa          	endbr64 
    1064:	68 03 00 00 00       	push   0x3
    1069:	f2 e9 b1 ff ff ff    	bnd jmp 1020 <.plt>
    106f:	90                   	nop
    1070:	f3 0f 1e fa          	endbr64 
    1074:	68 04 00 00 00       	push   0x4
    1079:	f2 e9 a1 ff ff ff    	bnd jmp 1020 <.plt>
    107f:	90                   	nop
    1080:	f3 0f 1e fa          	endbr64 
    1084:	68 05 00 00 00       	push   0x5
    1089:	f2 e9 91 ff ff ff    	bnd jmp 1020 <.plt>
    108f:	90                   	nop
    1090:	f3 0f 1e fa          	endbr64 
    1094:	68 06 00 00 00       	push   0x6
    1099:	f2 e9 81 ff ff ff    	bnd jmp 1020 <.plt>
    109f:	90                   	nop
    10a0:	f3 0f 1e fa          	endbr64 
    10a4:	68 07 00 00 00       	push   0x7
    10a9:	f2 e9 71 ff ff ff    	bnd jmp 1020 <.plt>
    10af:	90                   	nop

Disassembly of section .plt.got:

00000000000010b0 <__cxa_finalize@plt>:
    10b0:	f3 0f 1e fa          	endbr64 
    10b4:	f2 ff 25 3d 2f 00 00 	bnd jmp QWORD PTR [rip+0x2f3d]        # 3ff8 <__cxa_finalize@GLIBC_2.2.5>
    10bb:	0f 1f 44 00 00       	nop    DWORD PTR [rax+rax*1+0x0]

Disassembly of section .plt.sec:

00000000000010c0 <puts@plt>:
    10c0:	f3 0f 1e fa          	endbr64 
    10c4:	f2 ff 25 cd 2e 00 00 	bnd jmp QWORD PTR [rip+0x2ecd]        # 3f98 <puts@GLIBC_2.2.5>
    10cb:	0f 1f 44 00 00       	nop    DWORD PTR [rax+rax*1+0x0]

00000000000010d0 <write@plt>:
    10d0:	f3 0f 1e fa          	endbr64 
    10d4:	f2 ff 25 c5 2e 00 00 	bnd jmp QWORD PTR [rip+0x2ec5]        # 3fa0 <write@GLIBC_2.2.5>
    10db:	0f 1f 44 00 00       	nop    DWORD PTR [rax+rax*1+0x0]

00000000000010e0 <__stack_chk_fail@plt>:
    10e0:	f3 0f 1e fa          	endbr64 
    10e4:	f2 ff 25 bd 2e 00 00 	bnd jmp QWORD PTR [rip+0x2ebd]        # 3fa8 <__stack_chk_fail@GLIBC_2.4>
    10eb:	0f 1f 44 00 00       	nop    DWORD PTR [rax+rax*1+0x0]

00000000000010f0 <printf@plt>:
    10f0:	f3 0f 1e fa          	endbr64 
    10f4:	f2 ff 25 b5 2e 00 00 	bnd jmp QWORD PTR [rip+0x2eb5]        # 3fb0 <printf@GLIBC_2.2.5>
    10fb:	0f 1f 44 00 00       	nop    DWORD PTR [rax+rax*1+0x0]

0000000000001100 <mkfifo@plt>:
    1100:	f3 0f 1e fa          	endbr64 
    1104:	f2 ff 25 ad 2e 00 00 	bnd jmp QWORD PTR [rip+0x2ead]        # 3fb8 <mkfifo@GLIBC_2.2.5>
    110b:	0f 1f 44 00 00       	nop    DWORD PTR [rax+rax*1+0x0]

0000000000001110 <open@plt>:
    1110:	f3 0f 1e fa          	endbr64 
    1114:	f2 ff 25 a5 2e 00 00 	bnd jmp QWORD PTR [rip+0x2ea5]        # 3fc0 <open@GLIBC_2.2.5>
    111b:	0f 1f 44 00 00       	nop    DWORD PTR [rax+rax*1+0x0]

0000000000001120 <access@plt>:
    1120:	f3 0f 1e fa          	endbr64 
    1124:	f2 ff 25 9d 2e 00 00 	bnd jmp QWORD PTR [rip+0x2e9d]        # 3fc8 <access@GLIBC_2.2.5>
    112b:	0f 1f 44 00 00       	nop    DWORD PTR [rax+rax*1+0x0]

0000000000001130 <perror@plt>:
    1130:	f3 0f 1e fa          	endbr64 
    1134:	f2 ff 25 95 2e 00 00 	bnd jmp QWORD PTR [rip+0x2e95]        # 3fd0 <perror@GLIBC_2.2.5>
    113b:	0f 1f 44 00 00       	nop    DWORD PTR [rax+rax*1+0x0]

Disassembly of section .text:

0000000000001140 <_start>:
_start():
    1140:	f3 0f 1e fa          	endbr64 
    1144:	31 ed                	xor    ebp,ebp
    1146:	49 89 d1             	mov    r9,rdx
    1149:	5e                   	pop    rsi
    114a:	48 89 e2             	mov    rdx,rsp
    114d:	48 83 e4 f0          	and    rsp,0xfffffffffffffff0
    1151:	50                   	push   rax
    1152:	54                   	push   rsp
    1153:	4c 8d 05 b6 02 00 00 	lea    r8,[rip+0x2b6]        # 1410 <__libc_csu_fini>
    115a:	48 8d 0d 3f 02 00 00 	lea    rcx,[rip+0x23f]        # 13a0 <__libc_csu_init>
    1161:	48 8d 3d c1 00 00 00 	lea    rdi,[rip+0xc1]        # 1229 <main>
    1168:	ff 15 72 2e 00 00    	call   QWORD PTR [rip+0x2e72]        # 3fe0 <__libc_start_main@GLIBC_2.2.5>
    116e:	f4                   	hlt    
    116f:	90                   	nop

0000000000001170 <deregister_tm_clones>:
deregister_tm_clones():
    1170:	48 8d 3d 99 2e 00 00 	lea    rdi,[rip+0x2e99]        # 4010 <__TMC_END__>
    1177:	48 8d 05 92 2e 00 00 	lea    rax,[rip+0x2e92]        # 4010 <__TMC_END__>
    117e:	48 39 f8             	cmp    rax,rdi
    1181:	74 15                	je     1198 <deregister_tm_clones+0x28>
    1183:	48 8b 05 4e 2e 00 00 	mov    rax,QWORD PTR [rip+0x2e4e]        # 3fd8 <_ITM_deregisterTMCloneTable>
    118a:	48 85 c0             	test   rax,rax
    118d:	74 09                	je     1198 <deregister_tm_clones+0x28>
    118f:	ff e0                	jmp    rax
    1191:	0f 1f 80 00 00 00 00 	nop    DWORD PTR [rax+0x0]
    1198:	c3                   	ret    
    1199:	0f 1f 80 00 00 00 00 	nop    DWORD PTR [rax+0x0]

00000000000011a0 <register_tm_clones>:
register_tm_clones():
    11a0:	48 8d 3d 69 2e 00 00 	lea    rdi,[rip+0x2e69]        # 4010 <__TMC_END__>
    11a7:	48 8d 35 62 2e 00 00 	lea    rsi,[rip+0x2e62]        # 4010 <__TMC_END__>
    11ae:	48 29 fe             	sub    rsi,rdi
    11b1:	48 89 f0             	mov    rax,rsi
    11b4:	48 c1 ee 3f          	shr    rsi,0x3f
    11b8:	48 c1 f8 03          	sar    rax,0x3
    11bc:	48 01 c6             	add    rsi,rax
    11bf:	48 d1 fe             	sar    rsi,1
    11c2:	74 14                	je     11d8 <register_tm_clones+0x38>
    11c4:	48 8b 05 25 2e 00 00 	mov    rax,QWORD PTR [rip+0x2e25]        # 3ff0 <_ITM_registerTMCloneTable>
    11cb:	48 85 c0             	test   rax,rax
    11ce:	74 08                	je     11d8 <register_tm_clones+0x38>
    11d0:	ff e0                	jmp    rax
    11d2:	66 0f 1f 44 00 00    	nop    WORD PTR [rax+rax*1+0x0]
    11d8:	c3                   	ret    
    11d9:	0f 1f 80 00 00 00 00 	nop    DWORD PTR [rax+0x0]

00000000000011e0 <__do_global_dtors_aux>:
__do_global_dtors_aux():
    11e0:	f3 0f 1e fa          	endbr64 
    11e4:	80 3d 25 2e 00 00 00 	cmp    BYTE PTR [rip+0x2e25],0x0        # 4010 <__TMC_END__>
    11eb:	75 2b                	jne    1218 <__do_global_dtors_aux+0x38>
    11ed:	55                   	push   rbp
    11ee:	48 83 3d 02 2e 00 00 	cmp    QWORD PTR [rip+0x2e02],0x0        # 3ff8 <__cxa_finalize@GLIBC_2.2.5>
    11f5:	00 
    11f6:	48 89 e5             	mov    rbp,rsp
    11f9:	74 0c                	je     1207 <__do_global_dtors_aux+0x27>
    11fb:	48 8b 3d 06 2e 00 00 	mov    rdi,QWORD PTR [rip+0x2e06]        # 4008 <__dso_handle>
    1202:	e8 a9 fe ff ff       	call   10b0 <__cxa_finalize@plt>
    1207:	e8 64 ff ff ff       	call   1170 <deregister_tm_clones>
    120c:	c6 05 fd 2d 00 00 01 	mov    BYTE PTR [rip+0x2dfd],0x1        # 4010 <__TMC_END__>
    1213:	5d                   	pop    rbp
    1214:	c3                   	ret    
    1215:	0f 1f 00             	nop    DWORD PTR [rax]
    1218:	c3                   	ret    
    1219:	0f 1f 80 00 00 00 00 	nop    DWORD PTR [rax+0x0]

0000000000001220 <frame_dummy>:
frame_dummy():
    1220:	f3 0f 1e fa          	endbr64 
    1224:	e9 77 ff ff ff       	jmp    11a0 <register_tm_clones>

0000000000001229 <main>:
main():
/home/gaifw/桌面/GaiFW_C/Proc/02_exercise/myfifo.c:11
#include <sys/stat.h>
#include <fcntl.h>


int main()
{
    1229:	f3 0f 1e fa          	endbr64 
    122d:	55                   	push   rbp
    122e:	48 89 e5             	mov    rbp,rsp
    1231:	48 81 ec 20 04 00 00 	sub    rsp,0x420
    1238:	64 48 8b 04 25 28 00 	mov    rax,QWORD PTR fs:0x28
    123f:	00 00 
    1241:	48 89 45 f8          	mov    QWORD PTR [rbp-0x8],rax
    1245:	31 c0                	xor    eax,eax
/home/gaifw/桌面/GaiFW_C/Proc/02_exercise/myfifo.c:12
	if(access("myfifo",F_OK))//0-exite 
    1247:	be 00 00 00 00       	mov    esi,0x0
    124c:	48 8d 3d b1 0d 00 00 	lea    rdi,[rip+0xdb1]        # 2004 <_IO_stdin_used+0x4>
    1253:	e8 c8 fe ff ff       	call   1120 <access@plt>
    1258:	85 c0                	test   eax,eax
    125a:	74 2b                	je     1287 <main+0x5e>
/home/gaifw/桌面/GaiFW_C/Proc/02_exercise/myfifo.c:14
	{
		if(mkfifo("myfifo",0644))
    125c:	be a4 01 00 00       	mov    esi,0x1a4
    1261:	48 8d 3d 9c 0d 00 00 	lea    rdi,[rip+0xd9c]        # 2004 <_IO_stdin_used+0x4>
    1268:	e8 93 fe ff ff       	call   1100 <mkfifo@plt>
    126d:	85 c0                	test   eax,eax
    126f:	74 16                	je     1287 <main+0x5e>
/home/gaifw/桌面/GaiFW_C/Proc/02_exercise/myfifo.c:16
		{
			perror("mypipe");
    1271:	48 8d 3d 93 0d 00 00 	lea    rdi,[rip+0xd93]        # 200b <_IO_stdin_used+0xb>
    1278:	e8 b3 fe ff ff       	call   1130 <perror@plt>
/home/gaifw/桌面/GaiFW_C/Proc/02_exercise/myfifo.c:17
			return 0;
    127d:	b8 00 00 00 00       	mov    eax,0x0
    1282:	e9 00 01 00 00       	jmp    1387 <main+0x15e>
/home/gaifw/桌面/GaiFW_C/Proc/02_exercise/myfifo.c:21
		}
	}

	int fd = open("myfifo",O_WRONLY);
    1287:	be 01 00 00 00       	mov    esi,0x1
    128c:	48 8d 3d 71 0d 00 00 	lea    rdi,[rip+0xd71]        # 2004 <_IO_stdin_used+0x4>
    1293:	b8 00 00 00 00       	mov    eax,0x0
    1298:	e8 73 fe ff ff       	call   1110 <open@plt>
    129d:	89 85 e8 fb ff ff    	mov    DWORD PTR [rbp-0x418],eax
/home/gaifw/桌面/GaiFW_C/Proc/02_exercise/myfifo.c:22
	if(fd == -1)
    12a3:	83 bd e8 fb ff ff ff 	cmp    DWORD PTR [rbp-0x418],0xffffffff
    12aa:	75 16                	jne    12c2 <main+0x99>
/home/gaifw/桌面/GaiFW_C/Proc/02_exercise/myfifo.c:24
	{
		perror("open write");
    12ac:	48 8d 3d 5f 0d 00 00 	lea    rdi,[rip+0xd5f]        # 2012 <_IO_stdin_used+0x12>
    12b3:	e8 78 fe ff ff       	call   1130 <perror@plt>
/home/gaifw/桌面/GaiFW_C/Proc/02_exercise/myfifo.c:25
		return -1;
    12b8:	b8 ff ff ff ff       	mov    eax,0xffffffff
    12bd:	e9 c5 00 00 00       	jmp    1387 <main+0x15e>
/home/gaifw/桌面/GaiFW_C/Proc/02_exercise/myfifo.c:27
	}
	char buf[1024]="";
    12c2:	48 c7 85 f0 fb ff ff 	mov    QWORD PTR [rbp-0x410],0x0
    12c9:	00 00 00 00 
    12cd:	48 c7 85 f8 fb ff ff 	mov    QWORD PTR [rbp-0x408],0x0
    12d4:	00 00 00 00 
    12d8:	48 8d 95 00 fc ff ff 	lea    rdx,[rbp-0x400]
    12df:	b8 00 00 00 00       	mov    eax,0x0
    12e4:	b9 7e 00 00 00       	mov    ecx,0x7e
    12e9:	48 89 d7             	mov    rdi,rdx
    12ec:	f3 48 ab             	rep stos QWORD PTR es:[rdi],rax
/home/gaifw/桌面/GaiFW_C/Proc/02_exercise/myfifo.c:28
	for(int i=0;i<1024;i++)
    12ef:	c7 85 e0 fb ff ff 00 	mov    DWORD PTR [rbp-0x420],0x0
    12f6:	00 00 00 
    12f9:	eb 17                	jmp    1312 <main+0xe9>
/home/gaifw/桌面/GaiFW_C/Proc/02_exercise/myfifo.c:30 (discriminator 3)
	{
		buf[i]=1;
    12fb:	8b 85 e0 fb ff ff    	mov    eax,DWORD PTR [rbp-0x420]
    1301:	48 98                	cdqe   
    1303:	c6 84 05 f0 fb ff ff 	mov    BYTE PTR [rbp+rax*1-0x410],0x1
    130a:	01 
/home/gaifw/桌面/GaiFW_C/Proc/02_exercise/myfifo.c:28 (discriminator 3)
	for(int i=0;i<1024;i++)
    130b:	83 85 e0 fb ff ff 01 	add    DWORD PTR [rbp-0x420],0x1
/home/gaifw/桌面/GaiFW_C/Proc/02_exercise/myfifo.c:28 (discriminator 1)
    1312:	81 bd e0 fb ff ff ff 	cmp    DWORD PTR [rbp-0x420],0x3ff
    1319:	03 00 00 
    131c:	7e dd                	jle    12fb <main+0xd2>
/home/gaifw/桌面/GaiFW_C/Proc/02_exercise/myfifo.c:32
	}
	printf("------------\n");
    131e:	48 8d 3d f8 0c 00 00 	lea    rdi,[rip+0xcf8]        # 201d <_IO_stdin_used+0x1d>
    1325:	e8 96 fd ff ff       	call   10c0 <puts@plt>
/home/gaifw/桌面/GaiFW_C/Proc/02_exercise/myfifo.c:33
	int ret=0;
    132a:	c7 85 ec fb ff ff 00 	mov    DWORD PTR [rbp-0x414],0x0
    1331:	00 00 00 
/home/gaifw/桌面/GaiFW_C/Proc/02_exercise/myfifo.c:34
	int sum=0;
    1334:	c7 85 e4 fb ff ff 00 	mov    DWORD PTR [rbp-0x41c],0x0
    133b:	00 00 00 
/home/gaifw/桌面/GaiFW_C/Proc/02_exercise/myfifo.c:37 (discriminator 1)
	while(1)
	{
		ret = write(fd,buf,sizeof(buf));
    133e:	48 8d 8d f0 fb ff ff 	lea    rcx,[rbp-0x410]
    1345:	8b 85 e8 fb ff ff    	mov    eax,DWORD PTR [rbp-0x418]
    134b:	ba 00 04 00 00       	mov    edx,0x400
    1350:	48 89 ce             	mov    rsi,rcx
    1353:	89 c7                	mov    edi,eax
    1355:	e8 76 fd ff ff       	call   10d0 <write@plt>
    135a:	89 85 ec fb ff ff    	mov    DWORD PTR [rbp-0x414],eax
/home/gaifw/桌面/GaiFW_C/Proc/02_exercise/myfifo.c:38 (discriminator 1)
		sum +=ret;
    1360:	8b 85 ec fb ff ff    	mov    eax,DWORD PTR [rbp-0x414]
    1366:	01 85 e4 fb ff ff    	add    DWORD PTR [rbp-0x41c],eax
/home/gaifw/桌面/GaiFW_C/Proc/02_exercise/myfifo.c:39 (discriminator 1)
		printf("%d",sum);
    136c:	8b 85 e4 fb ff ff    	mov    eax,DWORD PTR [rbp-0x41c]
    1372:	89 c6                	mov    esi,eax
    1374:	48 8d 3d af 0c 00 00 	lea    rdi,[rip+0xcaf]        # 202a <_IO_stdin_used+0x2a>
    137b:	b8 00 00 00 00       	mov    eax,0x0
    1380:	e8 6b fd ff ff       	call   10f0 <printf@plt>
/home/gaifw/桌面/GaiFW_C/Proc/02_exercise/myfifo.c:37 (discriminator 1)
		ret = write(fd,buf,sizeof(buf));
    1385:	eb b7                	jmp    133e <main+0x115>
/home/gaifw/桌面/GaiFW_C/Proc/02_exercise/myfifo.c:45 (discriminator 1)
	}

	close(fd);
	return 0;

    1387:	48 8b 55 f8          	mov    rdx,QWORD PTR [rbp-0x8]
    138b:	64 48 33 14 25 28 00 	xor    rdx,QWORD PTR fs:0x28
    1392:	00 00 
    1394:	74 05                	je     139b <main+0x172>
/home/gaifw/桌面/GaiFW_C/Proc/02_exercise/myfifo.c:45
    1396:	e8 45 fd ff ff       	call   10e0 <__stack_chk_fail@plt>
    139b:	c9                   	leave  
    139c:	c3                   	ret    
    139d:	0f 1f 00             	nop    DWORD PTR [rax]

00000000000013a0 <__libc_csu_init>:
__libc_csu_init():
    13a0:	f3 0f 1e fa          	endbr64 
    13a4:	41 57                	push   r15
    13a6:	4c 8d 3d d3 29 00 00 	lea    r15,[rip+0x29d3]        # 3d80 <__frame_dummy_init_array_entry>
    13ad:	41 56                	push   r14
    13af:	49 89 d6             	mov    r14,rdx
    13b2:	41 55                	push   r13
    13b4:	49 89 f5             	mov    r13,rsi
    13b7:	41 54                	push   r12
    13b9:	41 89 fc             	mov    r12d,edi
    13bc:	55                   	push   rbp
    13bd:	48 8d 2d c4 29 00 00 	lea    rbp,[rip+0x29c4]        # 3d88 <__do_global_dtors_aux_fini_array_entry>
    13c4:	53                   	push   rbx
    13c5:	4c 29 fd             	sub    rbp,r15
    13c8:	48 83 ec 08          	sub    rsp,0x8
    13cc:	e8 2f fc ff ff       	call   1000 <_init>
    13d1:	48 c1 fd 03          	sar    rbp,0x3
    13d5:	74 1f                	je     13f6 <__libc_csu_init+0x56>
    13d7:	31 db                	xor    ebx,ebx
    13d9:	0f 1f 80 00 00 00 00 	nop    DWORD PTR [rax+0x0]
    13e0:	4c 89 f2             	mov    rdx,r14
    13e3:	4c 89 ee             	mov    rsi,r13
    13e6:	44 89 e7             	mov    edi,r12d
    13e9:	41 ff 14 df          	call   QWORD PTR [r15+rbx*8]
    13ed:	48 83 c3 01          	add    rbx,0x1
    13f1:	48 39 dd             	cmp    rbp,rbx
    13f4:	75 ea                	jne    13e0 <__libc_csu_init+0x40>
    13f6:	48 83 c4 08          	add    rsp,0x8
    13fa:	5b                   	pop    rbx
    13fb:	5d                   	pop    rbp
    13fc:	41 5c                	pop    r12
    13fe:	41 5d                	pop    r13
    1400:	41 5e                	pop    r14
    1402:	41 5f                	pop    r15
    1404:	c3                   	ret    
    1405:	66 66 2e 0f 1f 84 00 	data16 nop WORD PTR cs:[rax+rax*1+0x0]
    140c:	00 00 00 00 

0000000000001410 <__libc_csu_fini>:
__libc_csu_fini():
    1410:	f3 0f 1e fa          	endbr64 
    1414:	c3                   	ret    

Disassembly of section .fini:

0000000000001418 <_fini>:
_fini():
    1418:	f3 0f 1e fa          	endbr64 
    141c:	48 83 ec 08          	sub    rsp,0x8
    1420:	48 83 c4 08          	add    rsp,0x8
    1424:	c3                   	ret    
